; Function Attrs: mustprogress nofree norecurse nosync nounwind willreturn memory(argmem: readwrite) uwtable
define dso_local void @_ZN4Luau7CodeGen3X6412ScopedSpillsC2ERNS1_13IrRegAllocX64E(ptr nocapture noundef nonnull writeonly align 8 dereferenceable(12) %0, ptr noundef nonnull align 8 dereferenceable(256) %1) unnamed_addr #0 align 2 {
  store ptr %1, ptr %0, align 8
  %3 = getelementptr inbounds i8, ptr %0, i64 8
  store i32 0, ptr %3, align 8
  %4 = getelementptr inbounds i8, ptr %1, i64 228
  %5 = load i32, ptr %4, align 4
  store i32 %5, ptr %3, align 8
  ret void
}